Certificate:
    Data:
        Version: 3 (0x2)
        Serial Number: 1 (0x1)
    Signature Algorithm: md5WithRSAEncryption
        Issuer: C=BE, ST=Liege, L=Wandre, O=HEPL, OU=Informatique, CN=GUISSART Julien/emailAddress=julienguissart@hotmail.com
        Validity
            Not Before: Jan 18 17:12:11 2016 GMT
            Not After : Jan 17 17:12:11 2017 GMT
        Subject: C=BE, ST=Liege, O=HEPL, OU=Informatique, CN=Guissart Julien
        Subject Public Key Info:
            Public Key Algorithm: dsaEncryption
                pub: 
                    00:80:18:1e:e8:e5:66:8e:f2:0f:8f:54:29:f9:db:
                    7a:dd:e4:93:78:ea:dc:9b:2f:48:36:d0:ea:57:3b:
                    84:fd:7e:d0:99:a9:95:22:c6:29:8b:60:29:c9:67:
                    48:27:be:2f:19:ed:72:f6:3e:37:c8:34:da:12:14:
                    66:ad:fa:cb:0c:1a:36:62:3b:67:17:98:ea:2d:58:
                    bb:d5:e6:84:c2:20:b1:3d:42:50:c6:1e:cd:03:ae:
                    f0:d6:83:34:d4:28:c5:1e:9d:36:d3:42:b8:6a:65:
                    f3:a4:fa:92:35:76:ee:62:df:d5:cc:30:7b:9d:70:
                    60:10:9e:d9:5d:c0:07:ee:bd
                P:   
                    00:fd:7f:53:81:1d:75:12:29:52:df:4a:9c:2e:ec:
                    e4:e7:f6:11:b7:52:3c:ef:44:00:c3:1e:3f:80:b6:
                    51:26:69:45:5d:40:22:51:fb:59:3d:8d:58:fa:bf:
                    c5:f5:ba:30:f6:cb:9b:55:6c:d7:81:3b:80:1d:34:
                    6f:f2:66:60:b7:6b:99:50:a5:a4:9f:9f:e8:04:7b:
                    10:22:c2:4f:bb:a9:d7:fe:b7:c6:1b:f8:3b:57:e7:
                    c6:a8:a6:15:0f:04:fb:83:f6:d3:c5:1e:c3:02:35:
                    54:13:5a:16:91:32:f6:75:f3:ae:2b:61:d7:2a:ef:
                    f2:22:03:19:9d:d1:48:01:c7
                Q:   
                    00:97:60:50:8f:15:23:0b:cc:b2:92:b9:82:a2:eb:
                    84:0b:f0:58:1c:f5
                G:   
                    00:f7:e1:a0:85:d6:9b:3d:de:cb:bc:ab:5c:36:b8:
                    57:b9:79:94:af:bb:fa:3a:ea:82:f9:57:4c:0b:3d:
                    07:82:67:51:59:57:8e:ba:d4:59:4f:e6:71:07:10:
                    81:80:b4:49:16:71:23:e8:4c:28:16:13:b7:cf:09:
                    32:8c:c8:a6:e1:3c:16:7a:8b:54:7c:8d:28:e0:a3:
                    ae:1e:2b:b3:a6:75:91:6e:a3:7f:0b:fa:21:35:62:
                    f1:fb:62:7a:01:24:3b:cc:a4:f1:be:a8:51:90:89:
                    a8:83:df:e1:5a:e5:9f:06:92:8b:66:5e:80:7b:55:
                    25:64:01:4c:3b:fe:cf:49:2a
        X509v3 extensions:
            X509v3 Basic Constraints: 
                CA:FALSE
            Netscape Comment: 
                OpenSSL Generated Certificate
            X509v3 Subject Key Identifier: 
                89:95:AA:AE:E5:19:FB:08:F7:45:D7:F7:E8:8D:5E:6E:40:01:2C:40
            X509v3 Authority Key Identifier: 
                keyid:64:7F:44:D3:9D:77:D7:C7:E7:83:CE:C2:05:51:3B:BE:97:7E:09:24
                DirName:/C=BE/ST=Liege/L=Wandre/O=HEPL/OU=Informatique/CN=GUISSART Julien/emailAddress=julienguissart@hotmail.com
                serial:C7:8B:8D:14:6E:68:0E:CB

    Signature Algorithm: md5WithRSAEncryption
         0e:3d:b3:c6:6e:f0:18:0c:fe:f4:b5:0c:7f:a3:03:c3:c4:79:
         35:08:06:84:33:2a:5a:6e:09:b9:7a:af:34:01:bf:7b:c0:84:
         a1:2d:5e:32:2f:51:29:14:2f:ee:fa:bc:d7:37:c8:e1:8b:82:
         45:7f:b1:9a:d0:31:1a:fe:fc:03:15:68:65:57:f7:fc:54:14:
         0c:d7:8a:37:b0:c8:e2:e6:47:ce:5e:91:7f:bc:c9:ce:a5:d3:
         b8:d9:f5:4f:02:66:f9:5d:49:18:ef:54:ba:28:b2:4c:21:74:
         e0:c7:9f:22:51:4c:95:16:61:b6:2b:68:95:5f:e8:74:b4:99:
         b2:07
-----BEGIN CERTIFICATE-----
MIIEtjCCBB+gAwIBAgIBATANBgkqhkiG9w0BAQQFADCBmTELMAkGA1UEBhMCQkUx
DjAMBgNVBAgTBUxpZWdlMQ8wDQYDVQQHEwZXYW5kcmUxDTALBgNVBAoTBEhFUEwx
FTATBgNVBAsTDEluZm9ybWF0aXF1ZTEYMBYGA1UEAxMPR1VJU1NBUlQgSnVsaWVu
MSkwJwYJKoZIhvcNAQkBFhpqdWxpZW5ndWlzc2FydEBob3RtYWlsLmNvbTAeFw0x
NjAxMTgxNzEyMTFaFw0xNzAxMTcxNzEyMTFaMF0xCzAJBgNVBAYTAkJFMQ4wDAYD
VQQIEwVMaWVnZTENMAsGA1UEChMESEVQTDEVMBMGA1UECxMMSW5mb3JtYXRpcXVl
MRgwFgYDVQQDEw9HdWlzc2FydCBKdWxpZW4wggG4MIIBLAYHKoZIzjgEATCCAR8C
gYEA/X9TgR11EilS30qcLuzk5/YRt1I870QAwx4/gLZRJmlFXUAiUftZPY1Y+r/F
9bow9subVWzXgTuAHTRv8mZgt2uZUKWkn5/oBHsQIsJPu6nX/rfGG/g7V+fGqKYV
DwT7g/bTxR7DAjVUE1oWkTL2dfOuK2HXKu/yIgMZndFIAccCFQCXYFCPFSMLzLKS
uYKi64QL8Fgc9QKBgQD34aCF1ps93su8q1w2uFe5eZSvu/o66oL5V0wLPQeCZ1FZ
V4661FlP5nEHEIGAtEkWcSPoTCgWE7fPCTKMyKbhPBZ6i1R8jSjgo64eK7OmdZFu
o38L+iE1YvH7YnoBJDvMpPG+qFGQiaiD3+Fa5Z8GkotmXoB7VSVkAUw7/s9JKgOB
hQACgYEAgBge6OVmjvIPj1Qp+dt63eSTeOrcmy9INtDqVzuE/X7QmamVIsYpi2Ap
yWdIJ74vGe1y9j43yDTaEhRmrfrLDBo2YjtnF5jqLVi71eaEwiCxPUJQxh7NA67w
1oM01CjFHp0200K4amXzpPqSNXbuYt/VzDB7nXBgEJ7ZXcAH7r2jggEtMIIBKTAJ
BgNVHRMEAjAAMCwGCWCGSAGG+EIBDQQfFh1PcGVuU1NMIEdlbmVyYXRlZCBDZXJ0
aWZpY2F0ZTAdBgNVHQ4EFgQUiZWqruUZ+wj3Rdf36I1ebkABLEAwgc4GA1UdIwSB
xjCBw4AUZH9E051318fng87CBVE7vpd+CSShgZ+kgZwwgZkxCzAJBgNVBAYTAkJF
MQ4wDAYDVQQIEwVMaWVnZTEPMA0GA1UEBxMGV2FuZHJlMQ0wCwYDVQQKEwRIRVBM
MRUwEwYDVQQLEwxJbmZvcm1hdGlxdWUxGDAWBgNVBAMTD0dVSVNTQVJUIEp1bGll
bjEpMCcGCSqGSIb3DQEJARYaanVsaWVuZ3Vpc3NhcnRAaG90bWFpbC5jb22CCQDH
i40UbmgOyzANBgkqhkiG9w0BAQQFAAOBgQAOPbPGbvAYDP70tQx/owPDxHk1CAaE
Mypabgm5eq80Ab97wIShLV4yL1EpFC/u+rzXN8jhi4JFf7Ga0DEa/vwDFWhlV/f8
VBQM14o3sMji5kfOXpF/vMnOpdO42fVPAmb5XUkY71S6KLJMIXTgx58iUUyVFmG2
K2iVX+h0tJmyBw==
-----END CERTIFICATE-----
