Certificate:
    Data:
        Version: 3 (0x2)
        Serial Number: 2 (0x2)
    Signature Algorithm: md5WithRSAEncryption
        Issuer: C=BE, ST=Liege, L=Wandre, O=HEPL, OU=Informatique, CN=GUISSART Julien/emailAddress=julienguissart@hotmail.com
        Validity
            Not Before: Jan 18 17:45:15 2016 GMT
            Not After : Jan 17 17:45:15 2017 GMT
        Subject: C=BE, ST=Liege, O=HEPL, OU=Informatique, CN=Guissart Julien
        Subject Public Key Info:
            Public Key Algorithm: dsaEncryption
                pub: 
                    10:cb:e8:2a:2b:9a:7f:14:82:54:de:ee:7b:95:32:
                    2d:ce:89:04:a5:f3:66:3f:81:d1:a9:ef:e2:41:fb:
                    e0:52:68:ea:1c:90:0a:d9:63:da:ef:18:7b:0a:87:
                    ad:d1:6f:af:1e:98:c9:ab:3e:00:69:bb:c5:e9:65:
                    6a:50:09:3d:4c:41:c2:86:84:ec:e6:72:3b:4b:ba:
                    42:0e:d9:0b:34:24:4e:82:ba:e3:72:7d:0f:a7:6d:
                    89:51:92:65:bc:2c:bc:8a:30:b2:ef:4a:04:b9:4b:
                    37:21:5a:ff:db:55:da:a9:1d:d0:e8:a9:4e:2d:10:
                    69:91:2e:87:bb:53:95:d1
                P:   
                    00:fd:7f:53:81:1d:75:12:29:52:df:4a:9c:2e:ec:
                    e4:e7:f6:11:b7:52:3c:ef:44:00:c3:1e:3f:80:b6:
                    51:26:69:45:5d:40:22:51:fb:59:3d:8d:58:fa:bf:
                    c5:f5:ba:30:f6:cb:9b:55:6c:d7:81:3b:80:1d:34:
                    6f:f2:66:60:b7:6b:99:50:a5:a4:9f:9f:e8:04:7b:
                    10:22:c2:4f:bb:a9:d7:fe:b7:c6:1b:f8:3b:57:e7:
                    c6:a8:a6:15:0f:04:fb:83:f6:d3:c5:1e:c3:02:35:
                    54:13:5a:16:91:32:f6:75:f3:ae:2b:61:d7:2a:ef:
                    f2:22:03:19:9d:d1:48:01:c7
                Q:   
                    00:97:60:50:8f:15:23:0b:cc:b2:92:b9:82:a2:eb:
                    84:0b:f0:58:1c:f5
                G:   
                    00:f7:e1:a0:85:d6:9b:3d:de:cb:bc:ab:5c:36:b8:
                    57:b9:79:94:af:bb:fa:3a:ea:82:f9:57:4c:0b:3d:
                    07:82:67:51:59:57:8e:ba:d4:59:4f:e6:71:07:10:
                    81:80:b4:49:16:71:23:e8:4c:28:16:13:b7:cf:09:
                    32:8c:c8:a6:e1:3c:16:7a:8b:54:7c:8d:28:e0:a3:
                    ae:1e:2b:b3:a6:75:91:6e:a3:7f:0b:fa:21:35:62:
                    f1:fb:62:7a:01:24:3b:cc:a4:f1:be:a8:51:90:89:
                    a8:83:df:e1:5a:e5:9f:06:92:8b:66:5e:80:7b:55:
                    25:64:01:4c:3b:fe:cf:49:2a
        X509v3 extensions:
            X509v3 Basic Constraints: 
                CA:FALSE
            Netscape Comment: 
                OpenSSL Generated Certificate
            X509v3 Subject Key Identifier: 
                70:01:15:24:8B:C8:60:A9:F5:EC:D1:A3:59:B4:B5:15:5C:EC:EF:AC
            X509v3 Authority Key Identifier: 
                keyid:64:7F:44:D3:9D:77:D7:C7:E7:83:CE:C2:05:51:3B:BE:97:7E:09:24
                DirName:/C=BE/ST=Liege/L=Wandre/O=HEPL/OU=Informatique/CN=GUISSART Julien/emailAddress=julienguissart@hotmail.com
                serial:C7:8B:8D:14:6E:68:0E:CB

    Signature Algorithm: md5WithRSAEncryption
         ac:b6:73:79:8e:1e:47:3e:32:42:0d:2a:d0:e4:df:c5:24:e8:
         0a:06:16:eb:4c:e7:dc:3b:d7:33:c2:9c:02:bc:9b:45:05:c9:
         2e:5d:6d:a0:d5:aa:f8:27:c6:70:27:97:fa:c9:24:12:0a:11:
         4e:14:f5:db:4b:60:5a:4e:c2:38:65:6c:68:38:61:40:2f:ea:
         b1:4d:45:6a:50:c2:bb:a4:a4:00:6b:6b:9f:dc:59:37:5e:c8:
         77:67:ea:79:8e:a8:49:d9:e2:5b:c6:f0:a5:62:40:10:09:ff:
         85:49:6f:5f:04:91:a8:03:f0:38:f0:be:37:3c:7b:53:91:54:
         2b:cb
-----BEGIN CERTIFICATE-----
MIIEtTCCBB6gAwIBAgIBAjANBgkqhkiG9w0BAQQFADCBmTELMAkGA1UEBhMCQkUx
DjAMBgNVBAgTBUxpZWdlMQ8wDQYDVQQHEwZXYW5kcmUxDTALBgNVBAoTBEhFUEwx
FTATBgNVBAsTDEluZm9ybWF0aXF1ZTEYMBYGA1UEAxMPR1VJU1NBUlQgSnVsaWVu
MSkwJwYJKoZIhvcNAQkBFhpqdWxpZW5ndWlzc2FydEBob3RtYWlsLmNvbTAeFw0x
NjAxMTgxNzQ1MTVaFw0xNzAxMTcxNzQ1MTVaMF0xCzAJBgNVBAYTAkJFMQ4wDAYD
VQQIEwVMaWVnZTENMAsGA1UEChMESEVQTDEVMBMGA1UECxMMSW5mb3JtYXRpcXVl
MRgwFgYDVQQDEw9HdWlzc2FydCBKdWxpZW4wggG3MIIBLAYHKoZIzjgEATCCAR8C
gYEA/X9TgR11EilS30qcLuzk5/YRt1I870QAwx4/gLZRJmlFXUAiUftZPY1Y+r/F
9bow9subVWzXgTuAHTRv8mZgt2uZUKWkn5/oBHsQIsJPu6nX/rfGG/g7V+fGqKYV
DwT7g/bTxR7DAjVUE1oWkTL2dfOuK2HXKu/yIgMZndFIAccCFQCXYFCPFSMLzLKS
uYKi64QL8Fgc9QKBgQD34aCF1ps93su8q1w2uFe5eZSvu/o66oL5V0wLPQeCZ1FZ
V4661FlP5nEHEIGAtEkWcSPoTCgWE7fPCTKMyKbhPBZ6i1R8jSjgo64eK7OmdZFu
o38L+iE1YvH7YnoBJDvMpPG+qFGQiaiD3+Fa5Z8GkotmXoB7VSVkAUw7/s9JKgOB
hAACgYAQy+gqK5p/FIJU3u57lTItzokEpfNmP4HRqe/iQfvgUmjqHJAK2WPa7xh7
Coet0W+vHpjJqz4AabvF6WVqUAk9TEHChoTs5nI7S7pCDtkLNCROgrrjcn0Pp22J
UZJlvCy8ijCy70oEuUs3IVr/21XaqR3Q6KlOLRBpkS6Hu1OV0aOCAS0wggEpMAkG
A1UdEwQCMAAwLAYJYIZIAYb4QgENBB8WHU9wZW5TU0wgR2VuZXJhdGVkIENlcnRp
ZmljYXRlMB0GA1UdDgQWBBRwARUki8hgqfXs0aNZtLUVXOzvrDCBzgYDVR0jBIHG
MIHDgBRkf0TTnXfXx+eDzsIFUTu+l34JJKGBn6SBnDCBmTELMAkGA1UEBhMCQkUx
DjAMBgNVBAgTBUxpZWdlMQ8wDQYDVQQHEwZXYW5kcmUxDTALBgNVBAoTBEhFUEwx
FTATBgNVBAsTDEluZm9ybWF0aXF1ZTEYMBYGA1UEAxMPR1VJU1NBUlQgSnVsaWVu
MSkwJwYJKoZIhvcNAQkBFhpqdWxpZW5ndWlzc2FydEBob3RtYWlsLmNvbYIJAMeL
jRRuaA7LMA0GCSqGSIb3DQEBBAUAA4GBAKy2c3mOHkc+MkINKtDk38Uk6AoGFutM
59w71zPCnAK8m0UFyS5dbaDVqvgnxnAnl/rJJBIKEU4U9dtLYFpOwjhlbGg4YUAv
6rFNRWpQwrukpABra5/cWTdeyHdn6nmOqEnZ4lvG8KViQBAJ/4VJb18EkagD8Djw
vjc8e1ORVCvL
-----END CERTIFICATE-----
